target datalayout = "e-m:e-p270:32:32-p271:32:32-p272:64:64-i64:64-i128:128-f80:128-n8:16:32:64-S128"
target triple = "x86_64-pc-linux-gnu"

%struct.RelationData = type { %struct.RelFileLocator, ptr, i32, i32, i8, i8, i8, i8, i8, i32, i32, i32, i32, ptr, ptr, i32, %struct.LockInfoData, ptr, ptr, ptr, ptr, ptr, i8, ptr, ptr, ptr, ptr, ptr, ptr, i32, ptr, i8, ptr, ptr, i32, i8, i32, ptr, i8, ptr, ptr, ptr, ptr, ptr, ptr, ptr, i32, ptr, ptr, ptr, ptr, ptr, ptr, ptr, ptr, ptr, ptr, ptr, ptr, ptr, ptr, ptr, ptr, ptr, ptr, ptr, i32, i8, ptr }
%struct.RelFileLocator = type { i32, i32, i32 }
%struct.LockInfoData = type { %struct.LockRelId }
%struct.LockRelId = type { i32, i32 }
%union.LWLockPadded = type { %struct.LWLock, [112 x i8] }
%struct.LWLock = type { i16, %struct.pg_atomic_uint32, %struct.proclist_head }
%struct.pg_atomic_uint32 = type { i32 }
%struct.proclist_head = type { i32, i32 }
%struct.BTVacInfo = type { i16, i32, i32, [0 x %struct.BTOneVacInfo] }
%struct.BTOneVacInfo = type { %struct.LockRelId, i16 }
%struct.FormData_pg_class = type { i32, %struct.nameData, i32, i32, i32, i32, i32, i32, i32, i32, float, i32, i32, i8, i8, i8, i8, i16, i16, i8, i8, i8, i8, i8, i8, i8, i8, i32, i32, i32 }
%struct.nameData = type { [64 x i8] }

@MainLWLockArray = external global ptr, align 8
@btvacinfo = internal global ptr null, align 8
@.str = private unnamed_addr constant [39 x i8] c"multiple active vacuums for index \22%s\22\00", align 1
@.str.1 = private unnamed_addr constant [11 x i8] c"nbtutils.c\00", align 1
@__func__._bt_start_vacuum = private unnamed_addr constant [17 x i8] c"_bt_start_vacuum\00", align 1
@.str.2 = private unnamed_addr constant [23 x i8] c"out of btvacinfo slots\00", align 1

; Function Attrs: nounwind uwtable
define dso_local zeroext i16 @_bt_start_vacuum(ptr noundef %0) #0 {
  %2 = alloca ptr, align 8
  %3 = alloca i16, align 2
  %4 = alloca i32, align 4
  %5 = alloca ptr, align 8
  store ptr %0, ptr %2, align 8
  call void @llvm.lifetime.start.p0(i64 2, ptr %3) #8
  call void @llvm.lifetime.start.p0(i64 4, ptr %4) #8
  call void @llvm.lifetime.start.p0(i64 8, ptr %5) #8
  %6 = load ptr, ptr @MainLWLockArray, align 8
  %7 = getelementptr inbounds %union.LWLockPadded, ptr %6, i64 20
  %8 = call zeroext i1 @LWLockAcquire(ptr noundef %7, i32 noundef 0)
  %9 = load ptr, ptr @btvacinfo, align 8
  %10 = getelementptr inbounds nuw %struct.BTVacInfo, ptr %9, i32 0, i32 0
  %11 = load i16, ptr %10, align 4
  %12 = add i16 %11, 1
  store i16 %12, ptr %10, align 4
  store i16 %12, ptr %3, align 2
  %13 = load i16, ptr %3, align 2
  %14 = zext i16 %13 to i32
  %15 = icmp eq i32 %14, 0
  br i1 %15, label %20, label %16

16:                                               ; preds = %1
  %17 = load i16, ptr %3, align 2
  %18 = zext i16 %17 to i32
  %19 = icmp sgt i32 %18, 65407
  br i1 %19, label %20, label %23

20:                                               ; preds = %16, %1
  %21 = load ptr, ptr @btvacinfo, align 8
  %22 = getelementptr inbounds nuw %struct.BTVacInfo, ptr %21, i32 0, i32 0
  store i16 1, ptr %22, align 4
  store i16 1, ptr %3, align 2
  br label %23

23:                                               ; preds = %20, %16
  store i32 0, ptr %4, align 4
  br label %24

24:                                               ; preds = %77, %23
  %25 = load i32, ptr %4, align 4
  %26 = load ptr, ptr @btvacinfo, align 8
  %27 = getelementptr inbounds nuw %struct.BTVacInfo, ptr %26, i32 0, i32 1
  %28 = load i32, ptr %27, align 4
  %29 = icmp slt i32 %25, %28
  br i1 %29, label %30, label %80

30:                                               ; preds = %24
  %31 = load ptr, ptr @btvacinfo, align 8
  %32 = getelementptr inbounds nuw %struct.BTVacInfo, ptr %31, i32 0, i32 3
  %33 = load i32, ptr %4, align 4
  %34 = sext i32 %33 to i64
  %35 = getelementptr inbounds [0 x %struct.BTOneVacInfo], ptr %32, i64 0, i64 %34
  store ptr %35, ptr %5, align 8
  %36 = load ptr, ptr %5, align 8
  %37 = getelementptr inbounds nuw %struct.BTOneVacInfo, ptr %36, i32 0, i32 0
  %38 = getelementptr inbounds nuw %struct.LockRelId, ptr %37, i32 0, i32 0
  %39 = load i32, ptr %38, align 4
  %40 = load ptr, ptr %2, align 8
  %41 = getelementptr inbounds nuw %struct.RelationData, ptr %40, i32 0, i32 16
  %42 = getelementptr inbounds nuw %struct.LockInfoData, ptr %41, i32 0, i32 0
  %43 = getelementptr inbounds nuw %struct.LockRelId, ptr %42, i32 0, i32 0
  %44 = load i32, ptr %43, align 4
  %45 = icmp eq i32 %39, %44
  br i1 %45, label %46, label %76

46:                                               ; preds = %30
  %47 = load ptr, ptr %5, align 8
  %48 = getelementptr inbounds nuw %struct.BTOneVacInfo, ptr %47, i32 0, i32 0
  %49 = getelementptr inbounds nuw %struct.LockRelId, ptr %48, i32 0, i32 1
  %50 = load i32, ptr %49, align 4
  %51 = load ptr, ptr %2, align 8
  %52 = getelementptr inbounds nuw %struct.RelationData, ptr %51, i32 0, i32 16
  %53 = getelementptr inbounds nuw %struct.LockInfoData, ptr %52, i32 0, i32 0
  %54 = getelementptr inbounds nuw %struct.LockRelId, ptr %53, i32 0, i32 1
  %55 = load i32, ptr %54, align 4
  %56 = icmp eq i32 %50, %55
  br i1 %56, label %57, label %76

57:                                               ; preds = %46
  %58 = load ptr, ptr @MainLWLockArray, align 8
  %59 = getelementptr inbounds %union.LWLockPadded, ptr %58, i64 20
  call void @LWLockRelease(ptr noundef %59)
  br label %60

60:                                               ; preds = %57
  br i1 true, label %61, label %63

61:                                               ; preds = %60
  %62 = call zeroext i1 @errstart_cold(i32 noundef 21, ptr noundef null) #9
  br i1 %62, label %65, label %73

63:                                               ; preds = %60
  %64 = call zeroext i1 @errstart(i32 noundef 21, ptr noundef null)
  br i1 %64, label %65, label %73

65:                                               ; preds = %63, %61
  %66 = load ptr, ptr %2, align 8
  %67 = getelementptr inbounds nuw %struct.RelationData, ptr %66, i32 0, i32 13
  %68 = load ptr, ptr %67, align 8
  %69 = getelementptr inbounds nuw %struct.FormData_pg_class, ptr %68, i32 0, i32 1
  %70 = getelementptr inbounds nuw %struct.nameData, ptr %69, i32 0, i32 0
  %71 = getelementptr inbounds [64 x i8], ptr %70, i64 0, i64 0
  %72 = call i32 (ptr, ...) @errmsg_internal(ptr noundef @.str, ptr noundef %71)
  call void @errfinish(ptr noundef @.str.1, i32 noundef 2615, ptr noundef @__func__._bt_start_vacuum)
  br label %73

73:                                               ; preds = %65, %63, %61
  unreachable

74:                                               ; No predecessors!
  br label %75

75:                                               ; preds = %74
  br label %76

76:                                               ; preds = %75, %46, %30
  br label %77

77:                                               ; preds = %76
  %78 = load i32, ptr %4, align 4
  %79 = add i32 %78, 1
  store i32 %79, ptr %4, align 4
  br label %24, !llvm.loop !18

80:                                               ; preds = %24
  %81 = load ptr, ptr @btvacinfo, align 8
  %82 = getelementptr inbounds nuw %struct.BTVacInfo, ptr %81, i32 0, i32 1
  %83 = load i32, ptr %82, align 4
  %84 = load ptr, ptr @btvacinfo, align 8
  %85 = getelementptr inbounds nuw %struct.BTVacInfo, ptr %84, i32 0, i32 2
  %86 = load i32, ptr %85, align 4
  %87 = icmp sge i32 %83, %86
  br i1 %87, label %88, label %101

88:                                               ; preds = %80
  %89 = load ptr, ptr @MainLWLockArray, align 8
  %90 = getelementptr inbounds %union.LWLockPadded, ptr %89, i64 20
  call void @LWLockRelease(ptr noundef %90)
  br label %91

91:                                               ; preds = %88
  br i1 true, label %92, label %94

92:                                               ; preds = %91
  %93 = call zeroext i1 @errstart_cold(i32 noundef 21, ptr noundef null) #9
  br i1 %93, label %96, label %98

94:                                               ; preds = %91
  %95 = call zeroext i1 @errstart(i32 noundef 21, ptr noundef null)
  br i1 %95, label %96, label %98

96:                                               ; preds = %94, %92
  %97 = call i32 (ptr, ...) @errmsg_internal(ptr noundef @.str.2)
  call void @errfinish(ptr noundef @.str.1, i32 noundef 2623, ptr noundef @__func__._bt_start_vacuum)
  br label %98

98:                                               ; preds = %96, %94, %92
  unreachable

99:                                               ; No predecessors!
  br label %100

100:                                              ; preds = %99
  br label %101

101:                                              ; preds = %100, %80
  %102 = load ptr, ptr @btvacinfo, align 8
  %103 = getelementptr inbounds nuw %struct.BTVacInfo, ptr %102, i32 0, i32 3
  %104 = load ptr, ptr @btvacinfo, align 8
  %105 = getelementptr inbounds nuw %struct.BTVacInfo, ptr %104, i32 0, i32 1
  %106 = load i32, ptr %105, align 4
  %107 = sext i32 %106 to i64
  %108 = getelementptr inbounds [0 x %struct.BTOneVacInfo], ptr %103, i64 0, i64 %107
  store ptr %108, ptr %5, align 8
  %109 = load ptr, ptr %5, align 8
  %110 = getelementptr inbounds nuw %struct.BTOneVacInfo, ptr %109, i32 0, i32 0
  %111 = load ptr, ptr %2, align 8
  %112 = getelementptr inbounds nuw %struct.RelationData, ptr %111, i32 0, i32 16
  %113 = getelementptr inbounds nuw %struct.LockInfoData, ptr %112, i32 0, i32 0
  call void @llvm.memcpy.p0.p0.i64(ptr align 4 %110, ptr align 4 %113, i64 8, i1 false)
  %114 = load i16, ptr %3, align 2
  %115 = load ptr, ptr %5, align 8
  %116 = getelementptr inbounds nuw %struct.BTOneVacInfo, ptr %115, i32 0, i32 1
  store i16 %114, ptr %116, align 4
  %117 = load ptr, ptr @btvacinfo, align 8
  %118 = getelementptr inbounds nuw %struct.BTVacInfo, ptr %117, i32 0, i32 1
  %119 = load i32, ptr %118, align 4
  %120 = add i32 %119, 1
  store i32 %120, ptr %118, align 4
  %121 = load ptr, ptr @MainLWLockArray, align 8
  %122 = getelementptr inbounds %union.LWLockPadded, ptr %121, i64 20
  call void @LWLockRelease(ptr noundef %122)
  %123 = load i16, ptr %3, align 2
  call void @llvm.lifetime.end.p0(i64 8, ptr %5) #8
  call void @llvm.lifetime.end.p0(i64 4, ptr %4) #8
  call void @llvm.lifetime.end.p0(i64 2, ptr %3) #8
  ret i16 %123
}