; Function Attrs: nounwind uwtable
define dso_local zeroext i16 @_bt_start_vacuum(ptr noundef readonly captures(none) %0) local_unnamed_addr #0 {
  %2 = load ptr, ptr @MainLWLockArray, align 8
  %3 = getelementptr inbounds nuw i8, ptr %2, i64 2560
  %4 = tail call zeroext i1 @LWLockAcquire(ptr noundef nonnull %3, i32 noundef 0) #14
  %5 = load ptr, ptr @btvacinfo, align 8
  %6 = load i16, ptr %5, align 4
  %7 = add i16 %6, 1
  %or.cond = icmp ugt i16 %6, -130
  %spec.store.select = select i1 %or.cond, i16 1, i16 %7
  store i16 %spec.store.select, ptr %5, align 4
  %8 = getelementptr inbounds nuw i8, ptr %5, i64 4
  %9 = load i32, ptr %8, align 4
  %10 = icmp sgt i32 %9, 0
  br i1 %10, label %.lr.ph, label %._crit_edge

.lr.ph:                                           ; preds = %1
  %11 = getelementptr inbounds nuw i8, ptr %5, i64 12
  %12 = getelementptr inbounds nuw i8, ptr %0, i64 76
  %13 = load i32, ptr %12, align 4
  %14 = getelementptr inbounds nuw i8, ptr %0, i64 80
  %wide.trip.count = zext nneg i32 %9 to i64
  br label %15

15:                                               ; preds = %.lr.ph, %32
  %indvars.iv = phi i64 [ 0, %.lr.ph ], [ %indvars.iv.next, %32 ]
  %16 = getelementptr inbounds nuw [0 x %struct.BTOneVacInfo], ptr %11, i64 0, i64 %indvars.iv
  %17 = load i32, ptr %16, align 4
  %18 = icmp eq i32 %17, %13
  br i1 %18, label %19, label %32

19:                                               ; preds = %15
  %20 = getelementptr inbounds nuw i8, ptr %16, i64 4
  %21 = load i32, ptr %20, align 4
  %22 = load i32, ptr %14, align 4
  %23 = icmp eq i32 %21, %22
  br i1 %23, label %24, label %32

24:                                               ; preds = %19
  %25 = load ptr, ptr @MainLWLockArray, align 8
  %26 = getelementptr inbounds nuw i8, ptr %25, i64 2560
  tail call void @LWLockRelease(ptr noundef nonnull %26) #14
  %27 = tail call zeroext i1 @errstart_cold(i32 noundef 21, ptr noundef null) #15
  tail call void @llvm.assume(i1 %27)
  %28 = getelementptr inbounds nuw i8, ptr %0, i64 56
  %29 = load ptr, ptr %28, align 8
  %30 = getelementptr inbounds nuw i8, ptr %29, i64 4
  %31 = tail call i32 (ptr, ...) @errmsg_internal(ptr noundef nonnull @.str, ptr noundef nonnull %30) #14
  tail call void @errfinish(ptr noundef nonnull @.str.1, i32 noundef 2615, ptr noundef nonnull @__func__._bt_start_vacuum) #14
  unreachable

32:                                               ; preds = %15, %19
  %indvars.iv.next = add nuw nsw i64 %indvars.iv, 1
  %exitcond.not = icmp eq i64 %indvars.iv.next, %wide.trip.count
  br i1 %exitcond.not, label %._crit_edge, label %15, !llvm.loop !20

._crit_edge:                                      ; preds = %32, %1
  %33 = getelementptr inbounds nuw i8, ptr %5, i64 8
  %34 = load i32, ptr %33, align 4
  %.not = icmp slt i32 %9, %34
  br i1 %.not, label %40, label %35

35:                                               ; preds = %._crit_edge
  %36 = load ptr, ptr @MainLWLockArray, align 8
  %37 = getelementptr inbounds nuw i8, ptr %36, i64 2560
  tail call void @LWLockRelease(ptr noundef nonnull %37) #14
  %38 = tail call zeroext i1 @errstart_cold(i32 noundef 21, ptr noundef null) #15
  tail call void @llvm.assume(i1 %38)
  %39 = tail call i32 (ptr, ...) @errmsg_internal(ptr noundef nonnull @.str.2) #14
  tail call void @errfinish(ptr noundef nonnull @.str.1, i32 noundef 2623, ptr noundef nonnull @__func__._bt_start_vacuum) #14
  unreachable

40:                                               ; preds = %._crit_edge
  %41 = getelementptr inbounds nuw i8, ptr %5, i64 12
  %42 = sext i32 %9 to i64
  %43 = getelementptr inbounds [0 x %struct.BTOneVacInfo], ptr %41, i64 0, i64 %42
  %44 = getelementptr inbounds nuw i8, ptr %0, i64 76
  %45 = load i64, ptr %44, align 4
  store i64 %45, ptr %43, align 4
  %46 = getelementptr inbounds nuw i8, ptr %43, i64 8
  store i16 %spec.store.select, ptr %46, align 4
  %47 = load i32, ptr %8, align 4
  %48 = add i32 %47, 1
  store i32 %48, ptr %8, align 4
  %49 = load ptr, ptr @MainLWLockArray, align 8
  %50 = getelementptr inbounds nuw i8, ptr %49, i64 2560
  tail call void @LWLockRelease(ptr noundef nonnull %50) #14
  ret i16 %spec.store.select
}